target datalayout = "e-m:e-p270:32:32-p271:32:32-p272:64:64-i64:64-i128:128-f80:128-n8:16:32:64-S128"
target triple = "x86_64-pc-linux-gnu"

%struct.Rtm_Obj_t_ = type { ptr, i32, i32, i32, i32, [0 x ptr] }

; Function Attrs: inlinehint nounwind uwtable
define internal ptr @Rtm_ObjFanoutEdge(ptr noundef %0, i32 noundef %1) #5 {
  %3 = alloca ptr, align 8
  %4 = alloca i32, align 4
  store ptr %0, ptr %3, align 8, !tbaa !40
  store i32 %1, ptr %4, align 4, !tbaa !21
  %5 = load ptr, ptr %3, align 8, !tbaa !40
  %6 = getelementptr inbounds nuw %struct.Rtm_Obj_t_, ptr %5, i32 0, i32 5
  %7 = load ptr, ptr %3, align 8, !tbaa !40
  %8 = getelementptr inbounds nuw %struct.Rtm_Obj_t_, ptr %7, i32 0, i32 1
  %9 = load i32, ptr %8, align 8
  %10 = lshr i32 %9, 7
  %11 = and i32 %10, 255
  %12 = zext i32 %11 to i64
  %13 = trunc i64 %12 to i32
  %14 = load i32, ptr %4, align 4, !tbaa !21
  %15 = add nsw i32 %13, %14
  %16 = mul nsw i32 2, %15
  %17 = add nsw i32 %16, 1
  %18 = sext i32 %17 to i64
  %19 = getelementptr inbounds [0 x ptr], ptr %6, i64 0, i64 %18
  %20 = load ptr, ptr %19, align 8, !tbaa !45
  ret ptr %20
}

; Function Attrs: nounwind uwtable
define i32 @Rtm_ObjCheckRetimeBwd(ptr noundef %0) #0 {
  %2 = alloca i32, align 4
  %3 = alloca ptr, align 8
  %4 = alloca ptr, align 8
  %5 = alloca i32, align 4
  %6 = alloca i32, align 4
  store ptr %0, ptr %3, align 8, !tbaa !40
  call void @llvm.lifetime.start.p0(i64 8, ptr %4) #11
  call void @llvm.lifetime.start.p0(i64 4, ptr %5) #11
  store i32 0, ptr %5, align 4, !tbaa !21
  br label %7

7:                                                ; preds = %28, %1
  %8 = load i32, ptr %5, align 4, !tbaa !21
  %9 = load ptr, ptr %3, align 8, !tbaa !40
  %10 = getelementptr inbounds nuw %struct.Rtm_Obj_t_, ptr %9, i32 0, i32 4
  %11 = load i32, ptr %10, align 4, !tbaa !49
  %12 = icmp slt i32 %8, %11
  br i1 %12, label %13, label %17

13:                                               ; preds = %7
  %14 = load ptr, ptr %3, align 8, !tbaa !40
  %15 = load i32, ptr %5, align 4, !tbaa !21
  %16 = call ptr @Rtm_ObjFanoutEdge(ptr noundef %14, i32 noundef %15)
  store ptr %16, ptr %4, align 8, !tbaa !8
  br label %17

17:                                               ; preds = %13, %7
  %18 = phi i1 [ false, %7 ], [ true, %13 ]
  br i1 %18, label %19, label %31

19:                                               ; preds = %17
  %20 = load ptr, ptr %4, align 8, !tbaa !8
  %21 = load i32, ptr %20, align 8
  %22 = and i32 %21, 4095
  %23 = zext i32 %22 to i64
  %24 = trunc i64 %23 to i32
  %25 = icmp eq i32 %24, 0
  br i1 %25, label %26, label %27

26:                                               ; preds = %19
  store i32 0, ptr %2, align 4
  store i32 1, ptr %6, align 4
  br label %32

27:                                               ; preds = %19
  br label %28

28:                                               ; preds = %27
  %29 = load i32, ptr %5, align 4, !tbaa !21
  %30 = add nsw i32 %29, 1
  store i32 %30, ptr %5, align 4, !tbaa !21
  br label %7, !llvm.loop !51

31:                                               ; preds = %17
  store i32 1, ptr %2, align 4
  store i32 1, ptr %6, align 4
  br label %32

32:                                               ; preds = %31, %26
  call void @llvm.lifetime.end.p0(i64 4, ptr %5) #11
  call void @llvm.lifetime.end.p0(i64 8, ptr %4) #11
  %33 = load i32, ptr %2, align 4
  ret i32 %33
}