; Function Attrs: nofree norecurse nosync nounwind memory(read, inaccessiblemem: none) uwtable
define range(i32 0, 2) i32 @Rtm_ObjCheckRetimeBwd(ptr noundef readonly captures(none) %0) local_unnamed_addr #8 {
  %2 = getelementptr inbounds nuw i8, ptr %0, i64 24
  %3 = getelementptr inbounds nuw i8, ptr %0, i64 20
  %4 = load i32, ptr %3, align 4, !tbaa !41
  %5 = icmp sgt i32 %4, 0
  br i1 %5, label %.lr.ph, label %.critedge

.lr.ph:                                           ; preds = %1
  %6 = getelementptr inbounds nuw i8, ptr %0, i64 8
  %7 = load i32, ptr %6, align 8
  %8 = lshr i32 %7, 7
  %9 = and i32 %8, 255
  %10 = zext nneg i32 %9 to i64
  %wide.trip.count = zext nneg i32 %4 to i64
  br label %12

11:                                               ; preds = %12
  %indvars.iv.next = add nuw nsw i64 %indvars.iv, 1
  %exitcond.not = icmp eq i64 %indvars.iv.next, %wide.trip.count
  br i1 %exitcond.not, label %.critedge, label %12, !llvm.loop !43

12:                                               ; preds = %.lr.ph, %11
  %indvars.iv = phi i64 [ 0, %.lr.ph ], [ %indvars.iv.next, %11 ]
  %13 = add nuw nsw i64 %indvars.iv, %10
  %14 = shl nuw nsw i64 %13, 1
  %15 = or disjoint i64 %14, 1
  %16 = getelementptr inbounds nuw [0 x ptr], ptr %2, i64 0, i64 %15
  %17 = load ptr, ptr %16, align 8, !tbaa !34
  %18 = load i32, ptr %17, align 8
  %19 = and i32 %18, 4095
  %20 = icmp eq i32 %19, 0
  br i1 %20, label %.critedge, label %11

.critedge:                                        ; preds = %12, %11, %1
  %.06 = phi i32 [ 1, %1 ], [ 1, %11 ], [ 0, %12 ]
  ret i32 %.06
}